target datalayout = "e-m:e-p270:32:32-p271:32:32-p272:64:64-i64:64-i128:128-f80:128-n8:16:32:64-S128"
target triple = "x86_64-pc-linux-gnu"

%struct.AVDictionary = type { i32, ptr }
%struct.AVDictionaryEntry = type { ptr, ptr }

; Function Attrs: nounwind uwtable
define void @av_dict_free(ptr noundef %0) #0 {
  %2 = alloca ptr, align 8
  %3 = alloca ptr, align 8
  store ptr %0, ptr %2, align 8, !tbaa !25
  call void @llvm.lifetime.start.p0(i64 8, ptr %3) #7
  %4 = load ptr, ptr %2, align 8, !tbaa !25
  %5 = load ptr, ptr %4, align 8, !tbaa !4
  store ptr %5, ptr %3, align 8, !tbaa !4
  %6 = load ptr, ptr %3, align 8, !tbaa !4
  %7 = icmp ne ptr %6, null
  br i1 %7, label %8, label %37

8:                                                ; preds = %1
  br label %9

9:                                                ; preds = %15, %8
  %10 = load ptr, ptr %3, align 8, !tbaa !4
  %11 = getelementptr inbounds nuw %struct.AVDictionary, ptr %10, i32 0, i32 0
  %12 = load i32, ptr %11, align 8, !tbaa !9
  %13 = add nsw i32 %12, -1
  store i32 %13, ptr %11, align 8, !tbaa !9
  %14 = icmp ne i32 %12, 0
  br i1 %14, label %15, label %34

15:                                               ; preds = %9
  %16 = load ptr, ptr %3, align 8, !tbaa !4
  %17 = getelementptr inbounds nuw %struct.AVDictionary, ptr %16, i32 0, i32 1
  %18 = load ptr, ptr %17, align 8, !tbaa !15
  %19 = load ptr, ptr %3, align 8, !tbaa !4
  %20 = getelementptr inbounds nuw %struct.AVDictionary, ptr %19, i32 0, i32 0
  %21 = load i32, ptr %20, align 8, !tbaa !9
  %22 = sext i32 %21 to i64
  %23 = getelementptr inbounds %struct.AVDictionaryEntry, ptr %18, i64 %22
  %24 = getelementptr inbounds nuw %struct.AVDictionaryEntry, ptr %23, i32 0, i32 0
  call void @av_freep(ptr noundef %24)
  %25 = load ptr, ptr %3, align 8, !tbaa !4
  %26 = getelementptr inbounds nuw %struct.AVDictionary, ptr %25, i32 0, i32 1
  %27 = load ptr, ptr %26, align 8, !tbaa !15
  %28 = load ptr, ptr %3, align 8, !tbaa !4
  %29 = getelementptr inbounds nuw %struct.AVDictionary, ptr %28, i32 0, i32 0
  %30 = load i32, ptr %29, align 8, !tbaa !9
  %31 = sext i32 %30 to i64
  %32 = getelementptr inbounds %struct.AVDictionaryEntry, ptr %27, i64 %31
  %33 = getelementptr inbounds nuw %struct.AVDictionaryEntry, ptr %32, i32 0, i32 1
  call void @av_freep(ptr noundef %33)
  br label %9, !llvm.loop !36

34:                                               ; preds = %9
  %35 = load ptr, ptr %3, align 8, !tbaa !4
  %36 = getelementptr inbounds nuw %struct.AVDictionary, ptr %35, i32 0, i32 1
  call void @av_freep(ptr noundef %36)
  br label %37

37:                                               ; preds = %34, %1
  %38 = load ptr, ptr %2, align 8, !tbaa !25
  call void @av_freep(ptr noundef %38)
  call void @llvm.lifetime.end.p0(i64 8, ptr %3) #7
  ret void
}