; Function Attrs: nounwind uwtable
define void @av_dict_free(ptr noundef %0) local_unnamed_addr #3 {
  %2 = load ptr, ptr %0, align 8, !tbaa !19
  %.not = icmp eq ptr %2, null
  br i1 %.not, label %18, label %.preheader

.preheader:                                       ; preds = %1
  %3 = load i32, ptr %2, align 8, !tbaa !4
  %4 = add nsw i32 %3, -1
  store i32 %4, ptr %2, align 8, !tbaa !4
  %.not910 = icmp eq i32 %3, 0
  br i1 %.not910, label %._crit_edge, label %.lr.ph

.lr.ph:                                           ; preds = %.preheader
  %5 = getelementptr inbounds nuw i8, ptr %2, i64 8
  br label %6

6:                                                ; preds = %.lr.ph, %6
  %7 = phi i32 [ %4, %.lr.ph ], [ %16, %6 ]
  %8 = load ptr, ptr %5, align 8, !tbaa !11
  %9 = sext i32 %7 to i64
  %10 = getelementptr inbounds %struct.AVDictionaryEntry, ptr %8, i64 %9
  tail call void @av_freep(ptr noundef %10) #8
  %11 = load ptr, ptr %5, align 8, !tbaa !11
  %12 = load i32, ptr %2, align 8, !tbaa !4
  %13 = sext i32 %12 to i64
  %14 = getelementptr inbounds %struct.AVDictionaryEntry, ptr %11, i64 %13, i32 1
  tail call void @av_freep(ptr noundef nonnull %14) #8
  %15 = load i32, ptr %2, align 8, !tbaa !4
  %16 = add nsw i32 %15, -1
  store i32 %16, ptr %2, align 8, !tbaa !4
  %.not9 = icmp eq i32 %15, 0
  br i1 %.not9, label %._crit_edge, label %6, !llvm.loop !26

._crit_edge:                                      ; preds = %6, %.preheader
  %17 = getelementptr inbounds nuw i8, ptr %2, i64 8
  tail call void @av_freep(ptr noundef nonnull %17) #8
  br label %18

18:                                               ; preds = %._crit_edge, %1
  tail call void @av_freep(ptr noundef nonnull %0) #8
  ret void
}